target datalayout = "e-m:e-p270:32:32-p271:32:32-p272:64:64-i64:64-i128:128-f80:128-n8:16:32:64-S128"
target triple = "x86_64-pc-linux-gnu"

%struct.expert_field = type { i32, i32 }

@hf_nan_type_status = internal global i32 0, align 4
@hf_nan_reason_code = internal global i32 0, align 4
@hf_nan_publish_id = internal global i32 0, align 4
@hf_nan_dialog_tokens = internal global i32 0, align 4
@hf_nan_attr_ndp_initiator = internal global i32 0, align 4
@hf_nan_attr_ndp_id = internal global i32 0, align 4
@hf_nan_attr_ndp_control = internal global i32 0, align 4
@hf_nan_attr_ndp_responder_ndi = internal global i32 0, align 4
@hf_nan_attr_ndp_specific_info = internal global i32 0, align 4
@ett_type_status = internal global i32 0, align 4
@ett_ndp_control = internal global i32 0, align 4
@ei_nan_elem_len_invalid = internal global %struct.expert_field zeroinitializer, align 4
@dissect_attr_ndp.ndp_type_status_fields = internal constant [3 x ptr] [ptr @hf_nan_attr_ndp_type, ptr @hf_nan_status_1, ptr null], align 16
@dissect_attr_ndp.ndp_control_fields = internal constant [6 x ptr] [ptr @hf_nan_attr_ndp_ctrl_confirm, ptr @hf_nan_attr_ndp_ctrl_security_pres, ptr @hf_nan_attr_ndp_ctrl_publish_id_pres, ptr @hf_nan_attr_ndp_ctrl_responder_ndi_pres, ptr @hf_nan_attr_ndp_ctrl_sepcific_info_pres, ptr null], align 16

; Function Attrs: null_pointer_is_valid sspstrong uwtable
define internal void @dissect_attr_ndp(ptr noundef %0, ptr noundef %1, i32 noundef %2, i16 noundef zeroext %3, ptr noundef %4) #0 {
  %6 = alloca ptr, align 8
  %7 = alloca ptr, align 8
  %8 = alloca i32, align 4
  %9 = alloca i16, align 2
  %10 = alloca ptr, align 8
  %11 = alloca i32, align 4
  %12 = alloca i8, align 1
  %13 = alloca i8, align 1
  %14 = alloca i8, align 1
  %15 = alloca i8, align 1
  %16 = alloca i8, align 1
  store ptr %0, ptr %6, align 8
  store ptr %1, ptr %7, align 8
  store i32 %2, ptr %8, align 4
  store i16 %3, ptr %9, align 2
  store ptr %4, ptr %10, align 8
  %17 = load i16, ptr %9, align 2
  %18 = zext i16 %17 to i32
  %19 = icmp slt i32 %18, 11
  br i1 %19, label %20, label %24

20:                                               ; preds = %5
  %21 = load ptr, ptr %10, align 8
  %22 = load ptr, ptr %6, align 8
  %23 = call ptr @expert_add_info(ptr noundef %21, ptr noundef %22, ptr noundef @ei_nan_elem_len_invalid)
  br label %139

24:                                               ; preds = %5
  call void @llvm.lifetime.start.p0(i64 4, ptr %11) #5
  %25 = load i32, ptr %8, align 4
  %26 = add i32 %25, 3
  store i32 %26, ptr %11, align 4
  %27 = load ptr, ptr %6, align 8
  %28 = load i32, ptr @hf_nan_dialog_tokens, align 4
  %29 = load ptr, ptr %7, align 8
  %30 = load i32, ptr %11, align 4
  %31 = call ptr @proto_tree_add_item(ptr noundef %27, i32 noundef %28, ptr noundef %29, i32 noundef %30, i32 noundef 1, i32 noundef 0)
  %32 = load i32, ptr %11, align 4
  %33 = add i32 %32, 1
  store i32 %33, ptr %11, align 4
  %34 = load ptr, ptr %6, align 8
  %35 = load ptr, ptr %7, align 8
  %36 = load i32, ptr %11, align 4
  %37 = load i32, ptr @hf_nan_type_status, align 4
  %38 = load i32, ptr @ett_type_status, align 4
  %39 = call ptr @proto_tree_add_bitmask(ptr noundef %34, ptr noundef %35, i32 noundef %36, i32 noundef %37, i32 noundef %38, ptr noundef @dissect_attr_ndp.ndp_type_status_fields, i32 noundef -2147483648)
  call void @llvm.lifetime.start.p0(i64 1, ptr %12) #5
  %40 = load ptr, ptr %7, align 8
  %41 = load i32, ptr %11, align 4
  %42 = mul i32 %41, 8
  %43 = add i32 %42, 4
  %44 = call zeroext i8 @tvb_get_bits8(ptr noundef %40, i32 noundef %43, i32 noundef 4)
  store i8 %44, ptr %12, align 1
  call void @llvm.lifetime.start.p0(i64 1, ptr %13) #5
  %45 = load i32, ptr %11, align 4
  %46 = mul i32 %45, 8
  %47 = add i32 %46, 4
  %48 = trunc i32 %47 to i8
  store i8 %48, ptr %13, align 1
  call void @llvm.lifetime.start.p0(i64 1, ptr %14) #5
  %49 = load ptr, ptr %7, align 8
  %50 = load i8, ptr %13, align 1
  %51 = zext i8 %50 to i32
  %52 = call zeroext i8 @tvb_get_bits8(ptr noundef %49, i32 noundef %51, i32 noundef 4)
  store i8 %52, ptr %14, align 1
  %53 = load i32, ptr %11, align 4
  %54 = add i32 %53, 1
  store i32 %54, ptr %11, align 4
  %55 = load ptr, ptr %6, align 8
  %56 = load i32, ptr @hf_nan_reason_code, align 4
  %57 = load ptr, ptr %7, align 8
  %58 = load i32, ptr %11, align 4
  %59 = call ptr @proto_tree_add_item(ptr noundef %55, i32 noundef %56, ptr noundef %57, i32 noundef %58, i32 noundef 1, i32 noundef 0)
  %60 = load i32, ptr %11, align 4
  %61 = add i32 %60, 1
  store i32 %61, ptr %11, align 4
  %62 = load ptr, ptr %6, align 8
  %63 = load i32, ptr @hf_nan_attr_ndp_initiator, align 4
  %64 = load ptr, ptr %7, align 8
  %65 = load i32, ptr %11, align 4
  %66 = call ptr @proto_tree_add_item(ptr noundef %62, i32 noundef %63, ptr noundef %64, i32 noundef %65, i32 noundef 6, i32 noundef 0)
  %67 = load i32, ptr %11, align 4
  %68 = add i32 %67, 6
  store i32 %68, ptr %11, align 4
  %69 = load ptr, ptr %6, align 8
  %70 = load i32, ptr @hf_nan_attr_ndp_id, align 4
  %71 = load ptr, ptr %7, align 8
  %72 = load i32, ptr %11, align 4
  %73 = call ptr @proto_tree_add_item(ptr noundef %69, i32 noundef %70, ptr noundef %71, i32 noundef %72, i32 noundef 1, i32 noundef 0)
  %74 = load i32, ptr %11, align 4
  %75 = add i32 %74, 1
  store i32 %75, ptr %11, align 4
  %76 = load ptr, ptr %6, align 8
  %77 = load ptr, ptr %7, align 8
  %78 = load i32, ptr %11, align 4
  %79 = load i32, ptr @hf_nan_attr_ndp_control, align 4
  %80 = load i32, ptr @ett_ndp_control, align 4
  %81 = call ptr @proto_tree_add_bitmask(ptr noundef %76, ptr noundef %77, i32 noundef %78, i32 noundef %79, i32 noundef %80, ptr noundef @dissect_attr_ndp.ndp_control_fields, i32 noundef -2147483648)
  call void @llvm.lifetime.start.p0(i64 1, ptr %15) #5
  %82 = load ptr, ptr %7, align 8
  %83 = load i32, ptr %11, align 4
  %84 = mul i32 %83, 8
  %85 = add i32 %84, 2
  %86 = call zeroext i8 @tvb_get_bits8(ptr noundef %82, i32 noundef %85, i32 noundef 1)
  store i8 %86, ptr %15, align 1
  call void @llvm.lifetime.start.p0(i64 1, ptr %16) #5
  %87 = load ptr, ptr %7, align 8
  %88 = load i32, ptr %11, align 4
  %89 = mul i32 %88, 8
  %90 = add i32 %89, 4
  %91 = call zeroext i8 @tvb_get_bits8(ptr noundef %87, i32 noundef %90, i32 noundef 1)
  store i8 %91, ptr %16, align 1
  %92 = load i32, ptr %11, align 4
  %93 = add i32 %92, 1
  store i32 %93, ptr %11, align 4
  %94 = load i8, ptr %16, align 1
  %95 = zext i8 %94 to i32
  %96 = icmp eq i32 %95, 1
  br i1 %96, label %97, label %109

97:                                               ; preds = %24
  %98 = load i8, ptr %12, align 1
  %99 = zext i8 %98 to i32
  %100 = icmp eq i32 %99, 0
  br i1 %100, label %101, label %109

101:                                              ; preds = %97
  %102 = load ptr, ptr %6, align 8
  %103 = load i32, ptr @hf_nan_publish_id, align 4
  %104 = load ptr, ptr %7, align 8
  %105 = load i32, ptr %11, align 4
  %106 = call ptr @proto_tree_add_item(ptr noundef %102, i32 noundef %103, ptr noundef %104, i32 noundef %105, i32 noundef 1, i32 noundef 0)
  %107 = load i32, ptr %11, align 4
  %108 = add i32 %107, 1
  store i32 %108, ptr %11, align 4
  br label %109

109:                                              ; preds = %101, %97, %24
  %110 = load i8, ptr %12, align 1
  %111 = zext i8 %110 to i32
  %112 = icmp eq i32 %111, 1
  br i1 %112, label %113, label %129

113:                                              ; preds = %109
  %114 = load i8, ptr %14, align 1
  %115 = zext i8 %114 to i32
  %116 = icmp eq i32 %115, 0
  br i1 %116, label %121, label %117

117:                                              ; preds = %113
  %118 = load i8, ptr %14, align 1
  %119 = zext i8 %118 to i32
  %120 = icmp eq i32 %119, 1
  br i1 %120, label %121, label %129

121:                                              ; preds = %117, %113
  %122 = load ptr, ptr %6, align 8
  %123 = load i32, ptr @hf_nan_attr_ndp_responder_ndi, align 4
  %124 = load ptr, ptr %7, align 8
  %125 = load i32, ptr %11, align 4
  %126 = call ptr @proto_tree_add_item(ptr noundef %122, i32 noundef %123, ptr noundef %124, i32 noundef %125, i32 noundef 6, i32 noundef 0)
  %127 = load i32, ptr %11, align 4
  %128 = add i32 %127, 6
  store i32 %128, ptr %11, align 4
  br label %129

129:                                              ; preds = %121, %117, %109
  %130 = load i8, ptr %15, align 1
  %131 = icmp ne i8 %130, 0
  br i1 %131, label %132, label %138

132:                                              ; preds = %129
  %133 = load ptr, ptr %6, align 8
  %134 = load i32, ptr @hf_nan_attr_ndp_specific_info, align 4
  %135 = load ptr, ptr %7, align 8
  %136 = load i32, ptr %11, align 4
  %137 = call ptr @proto_tree_add_item(ptr noundef %133, i32 noundef %134, ptr noundef %135, i32 noundef %136, i32 noundef -1, i32 noundef 0)
  br label %138

138:                                              ; preds = %132, %129
  call void @llvm.lifetime.end.p0(i64 1, ptr %16) #5
  call void @llvm.lifetime.end.p0(i64 1, ptr %15) #5
  call void @llvm.lifetime.end.p0(i64 1, ptr %14) #5
  call void @llvm.lifetime.end.p0(i64 1, ptr %13) #5
  call void @llvm.lifetime.end.p0(i64 1, ptr %12) #5
  call void @llvm.lifetime.end.p0(i64 4, ptr %11) #5
  br label %139

139:                                              ; preds = %138, %20
  ret void
}