; Function Attrs: null_pointer_is_valid sspstrong uwtable
define internal fastcc void @dissect_attr_ndp(ptr noundef %0, ptr noundef %1, i32 noundef %2, i16 noundef zeroext %3, ptr noundef %4) unnamed_addr #0 {
  %6 = icmp ult i16 %3, 11
  br i1 %6, label %7, label %9

7:                                                ; preds = %5
  %8 = tail call ptr @expert_add_info(ptr noundef %4, ptr noundef %0, ptr noundef nonnull @ei_nan_elem_len_invalid)
  br label %52

9:                                                ; preds = %5
  %10 = add i32 %2, 3
  %11 = load i32, ptr @hf_nan_dialog_tokens, align 4
  %12 = tail call ptr @proto_tree_add_item(ptr noundef %0, i32 noundef %11, ptr noundef %1, i32 noundef %10, i32 noundef 1, i32 noundef 0)
  %13 = add i32 %2, 4
  %14 = load i32, ptr @hf_nan_type_status, align 4
  %15 = load i32, ptr @ett_type_status, align 4
  %16 = tail call ptr @proto_tree_add_bitmask(ptr noundef %0, ptr noundef %1, i32 noundef %13, i32 noundef %14, i32 noundef %15, ptr noundef nonnull @dissect_attr_ndp.ndp_type_status_fields, i32 noundef -2147483648)
  %17 = shl i32 %13, 3
  %18 = or disjoint i32 %17, 4
  %19 = tail call zeroext i8 @tvb_get_bits8(ptr noundef %1, i32 noundef %18, i32 noundef 4)
  %20 = and i32 %18, 252
  %21 = tail call zeroext i8 @tvb_get_bits8(ptr noundef %1, i32 noundef %20, i32 noundef 4)
  %22 = add i32 %2, 5
  %23 = load i32, ptr @hf_nan_reason_code, align 4
  %24 = tail call ptr @proto_tree_add_item(ptr noundef %0, i32 noundef %23, ptr noundef %1, i32 noundef %22, i32 noundef 1, i32 noundef 0)
  %25 = add i32 %2, 6
  %26 = load i32, ptr @hf_nan_attr_ndp_initiator, align 4
  %27 = tail call ptr @proto_tree_add_item(ptr noundef %0, i32 noundef %26, ptr noundef %1, i32 noundef %25, i32 noundef 6, i32 noundef 0)
  %28 = add i32 %2, 12
  %29 = load i32, ptr @hf_nan_attr_ndp_id, align 4
  %30 = tail call ptr @proto_tree_add_item(ptr noundef %0, i32 noundef %29, ptr noundef %1, i32 noundef %28, i32 noundef 1, i32 noundef 0)
  %31 = add i32 %2, 13
  %32 = load i32, ptr @hf_nan_attr_ndp_control, align 4
  %33 = load i32, ptr @ett_ndp_control, align 4
  %34 = tail call ptr @proto_tree_add_bitmask(ptr noundef %0, ptr noundef %1, i32 noundef %31, i32 noundef %32, i32 noundef %33, ptr noundef nonnull @dissect_attr_ndp.ndp_control_fields, i32 noundef -2147483648)
  %35 = shl i32 %31, 3
  %36 = or disjoint i32 %35, 2
  %37 = tail call zeroext i8 @tvb_get_bits8(ptr noundef %1, i32 noundef %36, i32 noundef 1)
  %38 = or disjoint i32 %35, 4
  %39 = tail call zeroext i8 @tvb_get_bits8(ptr noundef %1, i32 noundef %38, i32 noundef 1)
  %40 = add i32 %2, 14
  %41 = icmp eq i8 %39, 1
  %42 = icmp eq i8 %19, 0
  %or.cond = select i1 %41, i1 %42, i1 false
  br i1 %or.cond, label %.sink.split, label %43

43:                                               ; preds = %9
  %44 = icmp eq i8 %19, 1
  %or.cond5 = icmp ult i8 %21, 2
  %or.cond58 = select i1 %44, i1 %or.cond5, i1 false
  br i1 %or.cond58, label %.sink.split, label %48

.sink.split:                                      ; preds = %43, %9
  %hf_nan_publish_id.sink = phi ptr [ @hf_nan_publish_id, %9 ], [ @hf_nan_attr_ndp_responder_ndi, %43 ]
  %.sink63 = phi i32 [ 1, %9 ], [ 6, %43 ]
  %.sink = phi i32 [ 15, %9 ], [ 20, %43 ]
  %45 = load i32, ptr %hf_nan_publish_id.sink, align 4
  %46 = tail call ptr @proto_tree_add_item(ptr noundef %0, i32 noundef %45, ptr noundef %1, i32 noundef %40, i32 noundef %.sink63, i32 noundef 0)
  %47 = add i32 %2, %.sink
  br label %48

48:                                               ; preds = %.sink.split, %43
  %.1 = phi i32 [ %40, %43 ], [ %47, %.sink.split ]
  %.not = icmp eq i8 %37, 0
  br i1 %.not, label %52, label %49

49:                                               ; preds = %48
  %50 = load i32, ptr @hf_nan_attr_ndp_specific_info, align 4
  %51 = tail call ptr @proto_tree_add_item(ptr noundef %0, i32 noundef %50, ptr noundef %1, i32 noundef %.1, i32 noundef -1, i32 noundef 0)
  br label %52

52:                                               ; preds = %48, %49, %7
  ret void
}